target datalayout = "e-m:e-p270:32:32-p271:32:32-p272:64:64-i64:64-i128:128-f80:128-n8:16:32:64-S128"
target triple = "x86_64-pc-linux-gnu"

%struct.JsonSemAction = type { ptr, ptr, ptr, ptr, ptr, ptr, ptr, ptr, ptr, ptr }
%struct.JsonLexContext = type { ptr, i64, i32, ptr, ptr, ptr, i8, i32, i32, i32, i32, ptr, ptr, ptr, i8, ptr, ptr }
%struct.PQExpBufferData = type { ptr, i64, i64 }

; Function Attrs: inlinehint nounwind uwtable
define internal i32 @lex_expect(i32 noundef %0, ptr noundef %1, i32 noundef %2) #0 {
  %4 = alloca i32, align 4
  %5 = alloca i32, align 4
  %6 = alloca ptr, align 8
  %7 = alloca i32, align 4
  store i32 %0, ptr %5, align 4
  store ptr %1, ptr %6, align 8
  store i32 %2, ptr %7, align 4
  %8 = load ptr, ptr %6, align 8
  %9 = call i32 @lex_peek(ptr noundef %8)
  %10 = load i32, ptr %7, align 4
  %11 = icmp eq i32 %9, %10
  br i1 %11, label %12, label %15

12:                                               ; preds = %3
  %13 = load ptr, ptr %6, align 8
  %14 = call i32 @json_lex(ptr noundef %13)
  store i32 %14, ptr %4, align 4
  br label %19

15:                                               ; preds = %3
  %16 = load i32, ptr %5, align 4
  %17 = load ptr, ptr %6, align 8
  %18 = call i32 @report_parse_error(i32 noundef %16, ptr noundef %17)
  store i32 %18, ptr %4, align 4
  br label %19

19:                                               ; preds = %15, %12
  %20 = load i32, ptr %4, align 4
  ret i32 %20
}

; Function Attrs: nounwind uwtable
define internal i32 @report_parse_error(i32 noundef %0, ptr noundef %1) #1 {
  %3 = alloca i32, align 4
  %4 = alloca i32, align 4
  %5 = alloca ptr, align 8
  store i32 %0, ptr %4, align 4
  store ptr %1, ptr %5, align 8
  %6 = load ptr, ptr %5, align 8
  %7 = getelementptr inbounds nuw %struct.JsonLexContext, ptr %6, i32 0, i32 3
  %8 = load ptr, ptr %7, align 8
  %9 = icmp eq ptr %8, null
  br i1 %9, label %15, label %10

10:                                               ; preds = %2
  %11 = load ptr, ptr %5, align 8
  %12 = getelementptr inbounds nuw %struct.JsonLexContext, ptr %11, i32 0, i32 7
  %13 = load i32, ptr %12, align 4
  %14 = icmp eq i32 %13, 12
  br i1 %14, label %15, label %16

15:                                               ; preds = %10, %2
  store i32 11, ptr %3, align 4
  br label %28

16:                                               ; preds = %10
  %17 = load i32, ptr %4, align 4
  switch i32 %17, label %27 [
    i32 8, label %18
    i32 0, label %19
    i32 1, label %20
    i32 2, label %21
    i32 3, label %22
    i32 4, label %23
    i32 5, label %24
    i32 6, label %25
    i32 7, label %26
  ]

18:                                               ; preds = %16
  store i32 9, ptr %3, align 4
  br label %28

19:                                               ; preds = %16
  store i32 10, ptr %3, align 4
  br label %28

20:                                               ; preds = %16
  store i32 14, ptr %3, align 4
  br label %28

21:                                               ; preds = %16
  store i32 6, ptr %3, align 4
  br label %28

22:                                               ; preds = %16
  store i32 7, ptr %3, align 4
  br label %28

23:                                               ; preds = %16
  store i32 12, ptr %3, align 4
  br label %28

24:                                               ; preds = %16
  store i32 8, ptr %3, align 4
  br label %28

25:                                               ; preds = %16
  store i32 13, ptr %3, align 4
  br label %28

26:                                               ; preds = %16
  store i32 14, ptr %3, align 4
  br label %28

27:                                               ; preds = %16
  store i32 0, ptr %3, align 4
  br label %28

28:                                               ; preds = %27, %26, %25, %24, %23, %22, %21, %20, %19, %18, %15
  %29 = load i32, ptr %3, align 4
  ret i32 %29
}

; Function Attrs: inlinehint nounwind uwtable
define internal i32 @lex_peek(ptr noundef %0) #0 {
  %2 = alloca ptr, align 8
  store ptr %0, ptr %2, align 8
  %3 = load ptr, ptr %2, align 8
  %4 = getelementptr inbounds nuw %struct.JsonLexContext, ptr %3, i32 0, i32 7
  %5 = load i32, ptr %4, align 4
  ret i32 %5
}

; Function Attrs: nounwind uwtable
define internal i32 @parse_object_field(ptr noundef %0, ptr noundef %1) #1 {
  %3 = alloca i32, align 4
  %4 = alloca ptr, align 8
  %5 = alloca ptr, align 8
  %6 = alloca ptr, align 8
  %7 = alloca ptr, align 8
  %8 = alloca ptr, align 8
  %9 = alloca i8, align 1
  %10 = alloca i32, align 4
  %11 = alloca i32, align 4
  %12 = alloca i32, align 4
  store ptr %0, ptr %4, align 8
  store ptr %1, ptr %5, align 8
  call void @llvm.lifetime.start.p0(i64 8, ptr %6) #15
  store ptr null, ptr %6, align 8
  call void @llvm.lifetime.start.p0(i64 8, ptr %7) #15
  %13 = load ptr, ptr %5, align 8
  %14 = getelementptr inbounds nuw %struct.JsonSemAction, ptr %13, i32 0, i32 5
  %15 = load ptr, ptr %14, align 8
  store ptr %15, ptr %7, align 8
  call void @llvm.lifetime.start.p0(i64 8, ptr %8) #15
  %16 = load ptr, ptr %5, align 8
  %17 = getelementptr inbounds nuw %struct.JsonSemAction, ptr %16, i32 0, i32 6
  %18 = load ptr, ptr %17, align 8
  store ptr %18, ptr %8, align 8
  call void @llvm.lifetime.start.p0(i64 1, ptr %9) #15
  call void @llvm.lifetime.start.p0(i64 4, ptr %10) #15
  call void @llvm.lifetime.start.p0(i64 4, ptr %11) #15
  %19 = load ptr, ptr %4, align 8
  %20 = call i32 @lex_peek(ptr noundef %19)
  %21 = icmp ne i32 %20, 1
  br i1 %21, label %22, label %25

22:                                               ; preds = %2
  %23 = load ptr, ptr %4, align 8
  %24 = call i32 @report_parse_error(i32 noundef 1, ptr noundef %23)
  store i32 %24, ptr %3, align 4
  store i32 1, ptr %12, align 4
  br label %129

25:                                               ; preds = %2
  %26 = load ptr, ptr %7, align 8
  %27 = icmp ne ptr %26, null
  br i1 %27, label %31, label %28

28:                                               ; preds = %25
  %29 = load ptr, ptr %8, align 8
  %30 = icmp ne ptr %29, null
  br i1 %30, label %31, label %47

31:                                               ; preds = %28, %25
  %32 = load ptr, ptr %4, align 8
  %33 = getelementptr inbounds nuw %struct.JsonLexContext, ptr %32, i32 0, i32 14
  %34 = load i8, ptr %33, align 8, !range !3, !noundef !4
  %35 = trunc i8 %34 to i1
  br i1 %35, label %36, label %47

36:                                               ; preds = %31
  %37 = load ptr, ptr %4, align 8
  %38 = getelementptr inbounds nuw %struct.JsonLexContext, ptr %37, i32 0, i32 15
  %39 = load ptr, ptr %38, align 8
  %40 = getelementptr inbounds nuw %struct.PQExpBufferData, ptr %39, i32 0, i32 0
  %41 = load ptr, ptr %40, align 8
  %42 = call noalias ptr @strdup(ptr noundef %41) #15
  store ptr %42, ptr %6, align 8
  %43 = load ptr, ptr %6, align 8
  %44 = icmp eq ptr %43, null
  br i1 %44, label %45, label %46

45:                                               ; preds = %36
  store i32 16, ptr %3, align 4
  store i32 1, ptr %12, align 4
  br label %129

46:                                               ; preds = %36
  br label %47

47:                                               ; preds = %46, %31, %28
  %48 = load ptr, ptr %4, align 8
  %49 = call i32 @json_lex(ptr noundef %48)
  store i32 %49, ptr %11, align 4
  %50 = load i32, ptr %11, align 4
  %51 = icmp ne i32 %50, 0
  br i1 %51, label %52, label %55

52:                                               ; preds = %47
  %53 = load ptr, ptr %6, align 8
  call void @free(ptr noundef %53) #15
  %54 = load i32, ptr %11, align 4
  store i32 %54, ptr %3, align 4
  store i32 1, ptr %12, align 4
  br label %129

55:                                               ; preds = %47
  %56 = load ptr, ptr %4, align 8
  %57 = call i32 @lex_expect(i32 noundef 5, ptr noundef %56, i32 noundef 8)
  store i32 %57, ptr %11, align 4
  %58 = load i32, ptr %11, align 4
  %59 = icmp ne i32 %58, 0
  br i1 %59, label %60, label %63

60:                                               ; preds = %55
  %61 = load ptr, ptr %6, align 8
  call void @free(ptr noundef %61) #15
  %62 = load i32, ptr %11, align 4
  store i32 %62, ptr %3, align 4
  store i32 1, ptr %12, align 4
  br label %129

63:                                               ; preds = %55
  %64 = load ptr, ptr %4, align 8
  %65 = call i32 @lex_peek(ptr noundef %64)
  store i32 %65, ptr %10, align 4
  %66 = load i32, ptr %10, align 4
  %67 = icmp eq i32 %66, 11
  %68 = zext i1 %67 to i8
  store i8 %68, ptr %9, align 1
  %69 = load ptr, ptr %7, align 8
  %70 = icmp ne ptr %69, null
  br i1 %70, label %71, label %84

71:                                               ; preds = %63
  %72 = load ptr, ptr %7, align 8
  %73 = load ptr, ptr %5, align 8
  %74 = getelementptr inbounds nuw %struct.JsonSemAction, ptr %73, i32 0, i32 0
  %75 = load ptr, ptr %74, align 8
  %76 = load ptr, ptr %6, align 8
  %77 = load i8, ptr %9, align 1, !range !3, !noundef !4
  %78 = trunc i8 %77 to i1
  %79 = call i32 %72(ptr noundef %75, ptr noundef %76, i1 noundef zeroext %78)
  store i32 %79, ptr %11, align 4
  %80 = load i32, ptr %11, align 4
  %81 = icmp ne i32 %80, 0
  br i1 %81, label %82, label %83

82:                                               ; preds = %71
  br label %119

83:                                               ; preds = %71
  br label %84

84:                                               ; preds = %83, %63
  %85 = load i32, ptr %10, align 4
  switch i32 %85, label %94 [
    i32 3, label %86
    i32 5, label %90
  ]

86:                                               ; preds = %84
  %87 = load ptr, ptr %4, align 8
  %88 = load ptr, ptr %5, align 8
  %89 = call i32 @parse_object(ptr noundef %87, ptr noundef %88)
  store i32 %89, ptr %11, align 4
  br label %98

90:                                               ; preds = %84
  %91 = load ptr, ptr %4, align 8
  %92 = load ptr, ptr %5, align 8
  %93 = call i32 @parse_array(ptr noundef %91, ptr noundef %92)
  store i32 %93, ptr %11, align 4
  br label %98

94:                                               ; preds = %84
  %95 = load ptr, ptr %4, align 8
  %96 = load ptr, ptr %5, align 8
  %97 = call i32 @parse_scalar(ptr noundef %95, ptr noundef %96)
  store i32 %97, ptr %11, align 4
  br label %98

98:                                               ; preds = %94, %90, %86
  %99 = load i32, ptr %11, align 4
  %100 = icmp ne i32 %99, 0
  br i1 %100, label %101, label %102

101:                                              ; preds = %98
  br label %119

102:                                              ; preds = %98
  %103 = load ptr, ptr %8, align 8
  %104 = icmp ne ptr %103, null
  br i1 %104, label %105, label %118

105:                                              ; preds = %102
  %106 = load ptr, ptr %8, align 8
  %107 = load ptr, ptr %5, align 8
  %108 = getelementptr inbounds nuw %struct.JsonSemAction, ptr %107, i32 0, i32 0
  %109 = load ptr, ptr %108, align 8
  %110 = load ptr, ptr %6, align 8
  %111 = load i8, ptr %9, align 1, !range !3, !noundef !4
  %112 = trunc i8 %111 to i1
  %113 = call i32 %106(ptr noundef %109, ptr noundef %110, i1 noundef zeroext %112)
  store i32 %113, ptr %11, align 4
  %114 = load i32, ptr %11, align 4
  %115 = icmp ne i32 %114, 0
  br i1 %115, label %116, label %117

116:                                              ; preds = %105
  br label %119

117:                                              ; preds = %105
  br label %118

118:                                              ; preds = %117, %102
  br label %119

119:                                              ; preds = %118, %116, %101, %82
  %120 = load ptr, ptr %4, align 8
  %121 = getelementptr inbounds nuw %struct.JsonLexContext, ptr %120, i32 0, i32 9
  %122 = load i32, ptr %121, align 4
  %123 = and i32 %122, 4
  %124 = icmp ne i32 %123, 0
  br i1 %124, label %125, label %127

125:                                              ; preds = %119
  %126 = load ptr, ptr %6, align 8
  call void @free(ptr noundef %126) #15
  br label %127

127:                                              ; preds = %125, %119
  %128 = load i32, ptr %11, align 4
  store i32 %128, ptr %3, align 4
  store i32 1, ptr %12, align 4
  br label %129

129:                                              ; preds = %127, %60, %52, %45, %22
  call void @llvm.lifetime.end.p0(i64 4, ptr %11) #15
  call void @llvm.lifetime.end.p0(i64 4, ptr %10) #15
  call void @llvm.lifetime.end.p0(i64 1, ptr %9) #15
  call void @llvm.lifetime.end.p0(i64 8, ptr %8) #15
  call void @llvm.lifetime.end.p0(i64 8, ptr %7) #15
  call void @llvm.lifetime.end.p0(i64 8, ptr %6) #15
  %130 = load i32, ptr %3, align 4
  ret i32 %130
}