; Function Attrs: nounwind uwtable
define internal fastcc i32 @parse_object_field(ptr noundef captures(address) %0, ptr noundef readonly captures(none) %1) unnamed_addr #1 {
  %3 = getelementptr inbounds nuw i8, ptr %1, i64 40
  %4 = load ptr, ptr %3, align 8
  %5 = getelementptr inbounds nuw i8, ptr %1, i64 48
  %6 = load ptr, ptr %5, align 8
  %7 = getelementptr i8, ptr %0, i64 52
  %.val56 = load i32, ptr %7, align 4
  %.not = icmp eq i32 %.val56, 1
  br i1 %.not, label %13, label %8

8:                                                ; preds = %2
  %9 = getelementptr inbounds nuw i8, ptr %0, i64 24
  %10 = load ptr, ptr %9, align 8
  %11 = icmp eq ptr %10, null
  %12 = icmp eq i32 %.val56, 12
  %or.cond61 = or i1 %12, %11
  %spec.select62 = select i1 %or.cond61, i32 11, i32 14
  br label %report_parse_error.exit

13:                                               ; preds = %2
  %14 = icmp ne ptr %4, null
  %15 = icmp ne ptr %6, null
  %or.cond = select i1 %14, i1 true, i1 %15
  br i1 %or.cond, label %16, label %26

16:                                               ; preds = %13
  %17 = getelementptr inbounds nuw i8, ptr %0, i64 96
  %18 = load i8, ptr %17, align 8, !range !3, !noundef !4
  %19 = trunc nuw i8 %18 to i1
  br i1 %19, label %20, label %26

20:                                               ; preds = %16
  %21 = getelementptr inbounds nuw i8, ptr %0, i64 104
  %22 = load ptr, ptr %21, align 8
  %23 = load ptr, ptr %22, align 8
  %24 = tail call noalias ptr @strdup(ptr noundef %23) #16
  %25 = icmp eq ptr %24, null
  br i1 %25, label %report_parse_error.exit, label %26

26:                                               ; preds = %20, %13, %16
  %.045 = phi ptr [ %24, %20 ], [ null, %16 ], [ null, %13 ]
  %27 = tail call i32 @json_lex(ptr noundef nonnull %0)
  %.not52 = icmp eq i32 %27, 0
  br i1 %.not52, label %29, label %28

28:                                               ; preds = %26
  tail call void @free(ptr noundef %.045) #16
  br label %report_parse_error.exit

29:                                               ; preds = %26
  %.val.i = load i32, ptr %7, align 4
  %30 = icmp eq i32 %.val.i, 8
  br i1 %30, label %lex_expect.exit, label %31

31:                                               ; preds = %29
  %32 = getelementptr inbounds nuw i8, ptr %0, i64 24
  %33 = load ptr, ptr %32, align 8
  %34 = icmp eq ptr %33, null
  %35 = icmp eq i32 %.val.i, 12
  %or.cond.i = or i1 %35, %34
  %spec.select = select i1 %or.cond.i, i32 11, i32 8
  br label %lex_expect.exit.thread

lex_expect.exit:                                  ; preds = %29
  %36 = tail call i32 @json_lex(ptr noundef nonnull %0)
  %.not53 = icmp eq i32 %36, 0
  br i1 %.not53, label %37, label %lex_expect.exit.thread

lex_expect.exit.thread:                           ; preds = %31, %lex_expect.exit
  %.0.i5760 = phi i32 [ %36, %lex_expect.exit ], [ %spec.select, %31 ]
  tail call void @free(ptr noundef %.045) #16
  br label %report_parse_error.exit

37:                                               ; preds = %lex_expect.exit
  %.val = load i32, ptr %7, align 4
  %38 = icmp eq i32 %.val, 11
  br i1 %14, label %39, label %42

39:                                               ; preds = %37
  %40 = load ptr, ptr %1, align 8
  %41 = tail call i32 %4(ptr noundef %40, ptr noundef %.045, i1 noundef zeroext %38) #16
  %.not54 = icmp eq i32 %41, 0
  br i1 %.not54, label %42, label %54

42:                                               ; preds = %39, %37
  switch i32 %.val, label %47 [
    i32 3, label %43
    i32 5, label %45
  ]

43:                                               ; preds = %42
  %44 = tail call fastcc i32 @parse_object(ptr noundef nonnull %0, ptr noundef nonnull %1)
  br label %49

45:                                               ; preds = %42
  %46 = tail call fastcc i32 @parse_array(ptr noundef nonnull %0, ptr noundef nonnull %1)
  br label %49

47:                                               ; preds = %42
  %48 = tail call fastcc i32 @parse_scalar(ptr noundef nonnull %0, ptr noundef nonnull %1)
  br label %49

49:                                               ; preds = %47, %45, %43
  %.1 = phi i32 [ %48, %47 ], [ %46, %45 ], [ %44, %43 ]
  %50 = icmp eq i32 %.1, 0
  %or.cond3 = select i1 %50, i1 %15, i1 false
  br i1 %or.cond3, label %51, label %54

51:                                               ; preds = %49
  %52 = load ptr, ptr %1, align 8
  %53 = tail call i32 %6(ptr noundef %52, ptr noundef %.045, i1 noundef zeroext %38) #16
  br label %54

54:                                               ; preds = %51, %49, %39
  %.0 = phi i32 [ %41, %39 ], [ %53, %51 ], [ %.1, %49 ]
  %55 = getelementptr inbounds nuw i8, ptr %0, i64 60
  %56 = load i32, ptr %55, align 4
  %57 = and i32 %56, 4
  %.not55 = icmp eq i32 %57, 0
  br i1 %.not55, label %report_parse_error.exit, label %58

58:                                               ; preds = %54
  tail call void @free(ptr noundef %.045) #16
  br label %report_parse_error.exit

report_parse_error.exit:                          ; preds = %8, %54, %58, %20, %lex_expect.exit.thread, %28
  %.044 = phi i32 [ %27, %28 ], [ %.0.i5760, %lex_expect.exit.thread ], [ 16, %20 ], [ %.0, %58 ], [ %.0, %54 ], [ %spec.select62, %8 ]
  ret i32 %.044
}